target datalayout = "e-m:e-p270:32:32-p271:32:32-p272:64:64-i64:64-i128:128-f80:128-n8:16:32:64-S128"
target triple = "x86_64-pc-linux-gnu"

@.str.10 = private unnamed_addr constant [8 x i8] c"parsing\00", align 1
@.str.11 = private unnamed_addr constant [12 x i8] c"serializing\00", align 1

; Function Attrs: mustprogress uwtable
define hidden noundef zeroext i1 @_ZN6google8protobuf8internal14WireFormatLite16VerifyUtf8StringEPKciNS2_9OperationES4_(ptr noundef %0, i32 noundef %1, i32 noundef %2, ptr noundef %3) #4 align 2 {
  %5 = alloca i1, align 1
  %6 = alloca ptr, align 8
  %7 = alloca i32, align 4
  %8 = alloca i32, align 4
  %9 = alloca ptr, align 8
  %10 = alloca ptr, align 8
  store ptr %0, ptr %6, align 8, !tbaa !78
  store i32 %1, ptr %7, align 4, !tbaa !8
  store i32 %2, ptr %8, align 4, !tbaa !84
  store ptr %3, ptr %9, align 8, !tbaa !78
  %11 = load ptr, ptr %6, align 8, !tbaa !78
  %12 = load i32, ptr %7, align 4, !tbaa !8
  %13 = call noundef zeroext i1 @_ZN6google8protobuf8internal23IsStructurallyValidUTF8EPKci(ptr noundef %11, i32 noundef %12)
  br i1 %13, label %21, label %14

14:                                               ; preds = %4
  call void @llvm.lifetime.start.p0(i64 8, ptr %10) #3
  store ptr null, ptr %10, align 8, !tbaa !78
  %15 = load i32, ptr %8, align 4, !tbaa !84
  switch i32 %15, label %18 [
    i32 0, label %16
    i32 1, label %17
  ]

16:                                               ; preds = %14
  store ptr @.str.10, ptr %10, align 8, !tbaa !78
  br label %18

17:                                               ; preds = %14
  store ptr @.str.11, ptr %10, align 8, !tbaa !78
  br label %18

18:                                               ; preds = %14, %17, %16
  %19 = load ptr, ptr %9, align 8, !tbaa !78
  %20 = load ptr, ptr %10, align 8, !tbaa !78
  call void @_ZN6google8protobuf8internal17PrintUTF8ErrorLogEPKcS3_b(ptr noundef %19, ptr noundef %20, i1 noundef zeroext false)
  store i1 false, ptr %5, align 1
  call void @llvm.lifetime.end.p0(i64 8, ptr %10) #3
  br label %22

21:                                               ; preds = %4
  store i1 true, ptr %5, align 1
  br label %22

22:                                               ; preds = %21, %18
  %23 = load i1, ptr %5, align 1
  ret i1 %23
}